; Function Attrs: nounwind uwtable
define hidden range(i32 0, 2) i32 @_glfwWindowFocusedX11(ptr noundef readonly captures(none) %0) local_unnamed_addr #0 {
  %2 = alloca i64, align 8
  %3 = alloca i32, align 4
  call void @llvm.lifetime.start.p0(i64 8, ptr nonnull %2) #17
  call void @llvm.lifetime.start.p0(i64 4, ptr nonnull %3) #17
  %4 = load ptr, ptr getelementptr inbounds nuw (i8, ptr @_glfw, i64 141616), align 8, !tbaa !353
  %5 = load ptr, ptr getelementptr inbounds nuw (i8, ptr @_glfw, i64 137840), align 8, !tbaa !93
  %6 = call i32 %4(ptr noundef %5, ptr noundef nonnull %2, ptr noundef nonnull %3) #17
  %7 = getelementptr inbounds nuw i8, ptr %0, i64 1248
  %8 = load i64, ptr %7, align 8, !tbaa !140
  %9 = load i64, ptr %2, align 8, !tbaa !94
  %10 = icmp eq i64 %8, %9
  %11 = zext i1 %10 to i32
  call void @llvm.lifetime.end.p0(i64 4, ptr nonnull %3) #17
  call void @llvm.lifetime.end.p0(i64 8, ptr nonnull %2) #17
  ret i32 %11
}